target datalayout = "e-m:e-p270:32:32-p271:32:32-p272:64:64-i64:64-i128:128-f80:128-n8:16:32:64-S128"
target triple = "x86_64-unknown-linux-gnu"

%"class.std::__shared_count" = type { ptr }
%"class.arrow::util::AsyncTaskScheduler" = type { ptr }
%"class.arrow::util::(anonymous namespace)::AsyncTaskGroupImpl" = type { %"class.arrow::util::AsyncTaskGroup", ptr, %"class.std::shared_ptr.244" }
%"class.arrow::util::AsyncTaskGroup" = type { %"class.arrow::util::AsyncTaskScheduler" }
%"class.std::shared_ptr.244" = type { %"class.std::__shared_ptr.245" }
%"class.std::__shared_ptr.245" = type { ptr, %"class.std::__shared_count" }

; Function Attrs: mustprogress uwtable
define internal noundef nonnull align 8 dereferenceable(8) ptr @_ZNK5arrow4util12_GLOBAL__N_118AsyncTaskGroupImpl4spanEv(ptr noundef nonnull align 8 dereferenceable(32) %this) unnamed_addr #0 align 2 {
entry:
  %this.addr = alloca ptr, align 8
  store ptr %this, ptr %this.addr, align 8
  %this1 = load ptr, ptr %this.addr, align 8
  %target_ = getelementptr inbounds %"class.arrow::util::(anonymous namespace)::AsyncTaskGroupImpl", ptr %this1, i32 0, i32 1
  %0 = load ptr, ptr %target_, align 8
  %vtable = load ptr, ptr %0, align 8
  %vfn = getelementptr inbounds ptr, ptr %vtable, i64 3
  %1 = load ptr, ptr %vfn, align 8
  %call = call noundef nonnull align 8 dereferenceable(8) ptr %1(ptr noundef nonnull align 8 dereferenceable(8) %0)
  ret ptr %call
}